; ModuleID = '40/1708.c'
source_filename = "40/1708.c"
target datalayout = "e-m:e-p270:32:32-p271:32:32-p272:64:64-i64:64-f80:128-n8:16:32:64-S128"
target triple = "x86_64-pc-linux-gnu"

@.str = private unnamed_addr constant [20 x i8] c"%lf %lf %lf %lf %lf\00", align 1
@.str.1 = private unnamed_addr constant [6 x i8] c"%.4lf\00", align 1
@.str.2 = private unnamed_addr constant [14 x i8] c"Invalid input\00", align 1

; Function Attrs: noinline nounwind uwtable
define dso_local i32 @main() #0 {
  %1 = alloca i32, align 4
  %2 = alloca double, align 8
  %3 = alloca double, align 8
  %4 = alloca double, align 8
  %5 = alloca double, align 8
  %6 = alloca double, align 8
  %7 = alloca double, align 8
  %8 = alloca double, align 8
  %9 = alloca double, align 8
  store i32 0, i32* %1, align 4
  %10 = call i32 (i8*, ...) @__isoc99_scanf(i8* getelementptr inbounds ([20 x i8], [20 x i8]* @.str, i64 0, i64 0), double* %2, double* %3, double* %4, double* %5, double* %6)
  %11 = load double, double* %2, align 8
  %12 = load double, double* %3, align 8
  %13 = fadd double %11, %12
  %14 = load double, double* %4, align 8
  %15 = fadd double %13, %14
  %16 = load double, double* %5, align 8
  %17 = fadd double %15, %16
  %18 = fdiv double %17, 2.000000e+00
  store double %18, double* %8, align 8
  %19 = load double, double* %8, align 8
  %20 = load double, double* %2, align 8
  %21 = fsub double %19, %20
  %22 = load double, double* %8, align 8
  %23 = load double, double* %3, align 8
  %24 = fsub double %22, %23
  %25 = fmul double %21, %24
  %26 = load double, double* %8, align 8
  %27 = load double, double* %4, align 8
  %28 = fsub double %26, %27
  %29 = fmul double %25, %28
  %30 = load double, double* %8, align 8
  %31 = load double, double* %5, align 8
  %32 = fsub double %30, %31
  %33 = fmul double %29, %32
  %34 = load double, double* %2, align 8
  %35 = load double, double* %3, align 8
  %36 = fmul double %34, %35
  %37 = load double, double* %4, align 8
  %38 = fmul double %36, %37
  %39 = load double, double* %5, align 8
  %40 = fmul double %38, %39
  %41 = load double, double* %6, align 8
  %42 = fdiv double %41, 3.600000e+02
  %43 = fmul double %42, 1.000000e+02
  %44 = call double @cos(double %43) #3
  %45 = fmul double %40, %44
  %46 = load double, double* %6, align 8
  %47 = fdiv double %46, 3.600000e+02
  %48 = fmul double %47, 1.000000e+02
  %49 = call double @cos(double %48) #3
  %50 = fmul double %45, %49
  %51 = fsub double %33, %50
  store double %51, double* %9, align 8
  %52 = load double, double* %9, align 8
  %53 = fcmp oge double %52, 0.000000e+00
  br i1 %53, label %54, label %58

54:                                               ; preds = %0
  %55 = load double, double* %9, align 8
  %56 = call double @sqrt(double %55) #3
  %57 = call i32 (i8*, ...) @printf(i8* getelementptr inbounds ([6 x i8], [6 x i8]* @.str.1, i64 0, i64 0), double %56)
  br label %60

58:                                               ; preds = %0
  %59 = call i32 (i8*, ...) @printf(i8* getelementptr inbounds ([14 x i8], [14 x i8]* @.str.2, i64 0, i64 0))
  br label %60

60:                                               ; preds = %58, %54
  ret i32 0
}

declare dso_local i32 @__isoc99_scanf(i8*, ...) #1

; Function Attrs: nounwind
declare dso_local double @cos(double) #2

declare dso_local i32 @printf(i8*, ...) #1

; Function Attrs: nounwind
declare dso_local double @sqrt(double) #2


!llvm.module.flags = !{!0}
!llvm.ident = !{!1}

!0 = !{i32 1, !"wchar_size", i32 4}
!1 = !{!"clang version 10.0.0-4ubuntu1 "}
